; Function Attrs: mustprogress uwtable
define noundef nonnull align 8 dereferenceable(400) ptr @_ZN6icu_7515AlphabeticIndex9addLabelsERKNS_6LocaleER10UErrorCode(ptr noundef nonnull returned align 8 dereferenceable(400) %this, ptr noundef nonnull align 8 dereferenceable(217) %locale, ptr noundef nonnull align 4 dereferenceable(4) %status) unnamed_addr #3 align 2 {
entry:
  tail call void @_ZN6icu_7515AlphabeticIndex17addIndexExemplarsERKNS_6LocaleER10UErrorCode(ptr noundef nonnull align 8 dereferenceable(400) %this, ptr noundef nonnull align 8 dereferenceable(217) %locale, ptr noundef nonnull align 4 dereferenceable(4) %status)
  %buckets_.i = getelementptr inbounds i8, ptr %this, i64 72
  %0 = load ptr, ptr %buckets_.i, align 8
  %cmp.not.i = icmp eq ptr %0, null
  br i1 %cmp.not.i, label %_ZN6icu_7515AlphabeticIndex12clearBucketsEv.exit, label %delete.notnull.i

delete.notnull.i:                                 ; preds = %entry
  %vtable.i = load ptr, ptr %0, align 8
  %vfn.i = getelementptr inbounds i8, ptr %vtable.i, i64 8
  %1 = load ptr, ptr %vfn.i, align 8
  tail call void %1(ptr noundef nonnull align 8 dereferenceable(24) %0) #16
  store ptr null, ptr %buckets_.i, align 8
  %labelsIterIndex_.i.i = getelementptr inbounds i8, ptr %this, i64 16
  store i32 -1, ptr %labelsIterIndex_.i.i, align 8
  %currentBucket_.i.i = getelementptr inbounds i8, ptr %this, i64 24
  store ptr null, ptr %currentBucket_.i.i, align 8
  br label %_ZN6icu_7515AlphabeticIndex12clearBucketsEv.exit

_ZN6icu_7515AlphabeticIndex12clearBucketsEv.exit: ; preds = %entry, %delete.notnull.i
  ret ptr %this
}